target datalayout = "e-m:e-p270:32:32-p271:32:32-p272:64:64-i64:64-i128:128-f80:128-n8:16:32:64-S128"
target triple = "x86_64-pc-linux-gnu"

%struct.JsonLexContext = type { ptr, i64, i32, ptr, ptr, ptr, i8, i32, i32, i32, i32, ptr, ptr, ptr, i8, ptr, ptr }
%struct.GetState = type { ptr, ptr, ptr, i8, i8, i32, ptr, ptr, ptr, ptr }

; Function Attrs: nounwind uwtable
define internal i32 @get_scalar(ptr noundef %0, ptr noundef %1, i32 noundef %2) #0 {
  %4 = alloca ptr, align 8
  %5 = alloca ptr, align 8
  %6 = alloca i32, align 4
  %7 = alloca ptr, align 8
  %8 = alloca i32, align 4
  %9 = alloca ptr, align 8
  %10 = alloca i32, align 4
  store ptr %0, ptr %4, align 8
  store ptr %1, ptr %5, align 8
  store i32 %2, ptr %6, align 4
  call void @llvm.lifetime.start.p0(i64 8, ptr %7) #10
  %11 = load ptr, ptr %4, align 8
  store ptr %11, ptr %7, align 8
  call void @llvm.lifetime.start.p0(i64 4, ptr %8) #10
  %12 = load ptr, ptr %7, align 8
  %13 = getelementptr inbounds nuw %struct.GetState, ptr %12, i32 0, i32 0
  %14 = load ptr, ptr %13, align 8
  %15 = getelementptr inbounds nuw %struct.JsonLexContext, ptr %14, i32 0, i32 8
  %16 = load i32, ptr %15, align 8
  store i32 %16, ptr %8, align 4
  %17 = load i32, ptr %8, align 4
  %18 = icmp eq i32 %17, 0
  br i1 %18, label %19, label %69

19:                                               ; preds = %3
  %20 = load ptr, ptr %7, align 8
  %21 = getelementptr inbounds nuw %struct.GetState, ptr %20, i32 0, i32 5
  %22 = load i32, ptr %21, align 4
  %23 = icmp eq i32 %22, 0
  br i1 %23, label %24, label %69

24:                                               ; preds = %19
  %25 = load ptr, ptr %7, align 8
  %26 = getelementptr inbounds nuw %struct.GetState, ptr %25, i32 0, i32 3
  %27 = load i8, ptr %26, align 8, !range !4, !noundef !5
  %28 = trunc i8 %27 to i1
  br i1 %28, label %29, label %35

29:                                               ; preds = %24
  %30 = load i32, ptr %6, align 4
  %31 = icmp eq i32 %30, 1
  br i1 %31, label %32, label %35

32:                                               ; preds = %29
  %33 = load ptr, ptr %7, align 8
  %34 = getelementptr inbounds nuw %struct.GetState, ptr %33, i32 0, i32 4
  store i8 1, ptr %34, align 1
  br label %68

35:                                               ; preds = %29, %24
  %36 = load ptr, ptr %7, align 8
  %37 = getelementptr inbounds nuw %struct.GetState, ptr %36, i32 0, i32 3
  %38 = load i8, ptr %37, align 8, !range !4, !noundef !5
  %39 = trunc i8 %38 to i1
  br i1 %39, label %40, label %46

40:                                               ; preds = %35
  %41 = load i32, ptr %6, align 4
  %42 = icmp eq i32 %41, 11
  br i1 %42, label %43, label %46

43:                                               ; preds = %40
  %44 = load ptr, ptr %7, align 8
  %45 = getelementptr inbounds nuw %struct.GetState, ptr %44, i32 0, i32 1
  store ptr null, ptr %45, align 8
  br label %67

46:                                               ; preds = %40, %35
  call void @llvm.lifetime.start.p0(i64 8, ptr %9) #10
  %47 = load ptr, ptr %7, align 8
  %48 = getelementptr inbounds nuw %struct.GetState, ptr %47, i32 0, i32 0
  %49 = load ptr, ptr %48, align 8
  %50 = getelementptr inbounds nuw %struct.JsonLexContext, ptr %49, i32 0, i32 0
  %51 = load ptr, ptr %50, align 8
  store ptr %51, ptr %9, align 8
  call void @llvm.lifetime.start.p0(i64 4, ptr %10) #10
  %52 = load ptr, ptr %7, align 8
  %53 = getelementptr inbounds nuw %struct.GetState, ptr %52, i32 0, i32 0
  %54 = load ptr, ptr %53, align 8
  %55 = getelementptr inbounds nuw %struct.JsonLexContext, ptr %54, i32 0, i32 5
  %56 = load ptr, ptr %55, align 8
  %57 = load ptr, ptr %9, align 8
  %58 = ptrtoint ptr %56 to i64
  %59 = ptrtoint ptr %57 to i64
  %60 = sub i64 %58, %59
  %61 = trunc i64 %60 to i32
  store i32 %61, ptr %10, align 4
  %62 = load ptr, ptr %9, align 8
  %63 = load i32, ptr %10, align 4
  %64 = call ptr @cstring_to_text_with_len(ptr noundef %62, i32 noundef %63)
  %65 = load ptr, ptr %7, align 8
  %66 = getelementptr inbounds nuw %struct.GetState, ptr %65, i32 0, i32 1
  store ptr %64, ptr %66, align 8
  call void @llvm.lifetime.end.p0(i64 4, ptr %10) #10
  call void @llvm.lifetime.end.p0(i64 8, ptr %9) #10
  br label %67

67:                                               ; preds = %46, %43
  br label %68

68:                                               ; preds = %67, %32
  br label %69

69:                                               ; preds = %68, %19, %3
  %70 = load ptr, ptr %7, align 8
  %71 = getelementptr inbounds nuw %struct.GetState, ptr %70, i32 0, i32 4
  %72 = load i8, ptr %71, align 1, !range !4, !noundef !5
  %73 = trunc i8 %72 to i1
  br i1 %73, label %74, label %81

74:                                               ; preds = %69
  %75 = load ptr, ptr %5, align 8
  %76 = call ptr @cstring_to_text(ptr noundef %75)
  %77 = load ptr, ptr %7, align 8
  %78 = getelementptr inbounds nuw %struct.GetState, ptr %77, i32 0, i32 1
  store ptr %76, ptr %78, align 8
  %79 = load ptr, ptr %7, align 8
  %80 = getelementptr inbounds nuw %struct.GetState, ptr %79, i32 0, i32 4
  store i8 0, ptr %80, align 1
  br label %81

81:                                               ; preds = %74, %69
  call void @llvm.lifetime.end.p0(i64 4, ptr %8) #10
  call void @llvm.lifetime.end.p0(i64 8, ptr %7) #10
  ret i32 0
}