; Function Attrs: nounwind uwtable
define internal noundef i32 @get_scalar(ptr noundef captures(none) %0, ptr noundef %1, i32 noundef %2) #0 {
  %4 = load ptr, ptr %0, align 8
  %5 = getelementptr inbounds nuw i8, ptr %4, i64 56
  %6 = load i32, ptr %5, align 8
  %7 = icmp eq i32 %6, 0
  br i1 %7, label %8, label %33

8:                                                ; preds = %3
  %9 = getelementptr inbounds nuw i8, ptr %0, i64 28
  %10 = load i32, ptr %9, align 4
  %11 = icmp eq i32 %10, 0
  br i1 %11, label %12, label %33

12:                                               ; preds = %8
  %13 = getelementptr inbounds nuw i8, ptr %0, i64 24
  %14 = load i8, ptr %13, align 8, !range !4, !noundef !5
  %15 = trunc nuw i8 %14 to i1
  %16 = icmp eq i32 %2, 1
  %or.cond = and i1 %16, %15
  br i1 %or.cond, label %17, label %19

17:                                               ; preds = %12
  %18 = getelementptr inbounds nuw i8, ptr %0, i64 25
  store i8 1, ptr %18, align 1
  br label %33

19:                                               ; preds = %12
  %20 = icmp eq i32 %2, 11
  %or.cond3 = and i1 %20, %15
  br i1 %or.cond3, label %21, label %23

21:                                               ; preds = %19
  %22 = getelementptr inbounds nuw i8, ptr %0, i64 8
  store ptr null, ptr %22, align 8
  br label %33

23:                                               ; preds = %19
  %24 = load ptr, ptr %4, align 8
  %25 = getelementptr inbounds nuw i8, ptr %4, i64 40
  %26 = load ptr, ptr %25, align 8
  %27 = ptrtoint ptr %26 to i64
  %28 = ptrtoint ptr %24 to i64
  %29 = sub i64 %27, %28
  %30 = trunc i64 %29 to i32
  %31 = tail call ptr @cstring_to_text_with_len(ptr noundef %24, i32 noundef %30) #15
  %32 = getelementptr inbounds nuw i8, ptr %0, i64 8
  store ptr %31, ptr %32, align 8
  br label %33

33:                                               ; preds = %17, %23, %21, %8, %3
  %34 = getelementptr inbounds nuw i8, ptr %0, i64 25
  %35 = load i8, ptr %34, align 1, !range !4, !noundef !5
  %36 = trunc nuw i8 %35 to i1
  br i1 %36, label %37, label %40

37:                                               ; preds = %33
  %38 = tail call ptr @cstring_to_text(ptr noundef %1) #15
  %39 = getelementptr inbounds nuw i8, ptr %0, i64 8
  store ptr %38, ptr %39, align 8
  store i8 0, ptr %34, align 1
  br label %40

40:                                               ; preds = %37, %33
  ret i32 0
}